; Function Attrs: mustprogress nofree norecurse nosync nounwind willreturn memory(read, inaccessiblemem: none) uwtable
define dso_local noundef i64 @_ZNK4i18n12phonenumbers11StringPiece17find_first_not_ofEcm(ptr noundef nonnull readonly align 8 captures(none) dereferenceable(16) %0, i8 noundef signext %1, i64 noundef %2) local_unnamed_addr #6 align 2 {
  %4 = getelementptr inbounds nuw i8, ptr %0, i64 8
  %5 = load i64, ptr %4, align 8, !tbaa !11
  %6 = icmp ult i64 %2, %5
  br i1 %6, label %.lr.ph, label %.loopexit

.lr.ph:                                           ; preds = %3
  %7 = load ptr, ptr %0, align 8, !tbaa !4
  br label %8

8:                                                ; preds = %.lr.ph, %11
  %.07 = phi i64 [ %2, %.lr.ph ], [ %12, %11 ]
  %9 = getelementptr inbounds nuw i8, ptr %7, i64 %.07
  %10 = load i8, ptr %9, align 1, !tbaa !15
  %.not = icmp eq i8 %10, %1
  br i1 %.not, label %11, label %.loopexit

11:                                               ; preds = %8
  %12 = add i64 %.07, 1
  %exitcond.not = icmp eq i64 %12, %5
  br i1 %exitcond.not, label %.loopexit, label %8, !llvm.loop !27

.loopexit:                                        ; preds = %8, %11, %3
  %.06 = phi i64 [ -1, %3 ], [ %.07, %8 ], [ -1, %11 ]
  ret i64 %.06
}